; Function Attrs: mustprogress nofree norecurse nosync nounwind willreturn memory(read, argmem: readwrite, inaccessiblemem: none) uwtable
define range(i32 0, 2) i32 @ossl_decode_der_length(ptr noundef captures(none) %0, ptr noundef writeonly captures(none) %1) local_unnamed_addr #3 {
  %3 = getelementptr i8, ptr %0, i64 8
  %.val.i.i = load i64, ptr %3, align 8, !tbaa !10
  %.not.i.i = icmp eq i64 %.val.i.i, 0
  br i1 %.not.i.i, label %PACKET_get_sub_packet.exit, label %4

4:                                                ; preds = %2
  %5 = load ptr, ptr %0, align 8, !tbaa !12
  %6 = load i8, ptr %5, align 1, !tbaa !13
  %7 = getelementptr inbounds nuw i8, ptr %5, i64 1
  store ptr %7, ptr %0, align 8, !tbaa !12
  %8 = add i64 %.val.i.i, -1
  store i64 %8, ptr %3, align 8, !tbaa !10
  %9 = icmp sgt i8 %6, -1
  br i1 %9, label %10, label %18

10:                                               ; preds = %4
  %11 = zext nneg i8 %6 to i64
  %12 = icmp ult i64 %8, %11
  br i1 %12, label %PACKET_get_sub_packet.exit, label %13

13:                                               ; preds = %10
  store ptr %7, ptr %1, align 8, !tbaa !12
  %14 = getelementptr inbounds nuw i8, ptr %1, i64 8
  store i64 %11, ptr %14, align 8, !tbaa !10
  %15 = getelementptr inbounds nuw i8, ptr %7, i64 %11
  store ptr %15, ptr %0, align 8, !tbaa !12
  %16 = load i64, ptr %3, align 8, !tbaa !10
  %17 = sub i64 %16, %11
  store i64 %17, ptr %3, align 8, !tbaa !10
  br label %PACKET_get_sub_packet.exit

18:                                               ; preds = %4
  switch i8 %6, label %PACKET_get_sub_packet.exit [
    i8 -127, label %19
    i8 -126, label %30
  ]

19:                                               ; preds = %18
  %.not.i.i.i = icmp eq i64 %8, 0
  br i1 %.not.i.i.i, label %PACKET_get_sub_packet.exit, label %20

20:                                               ; preds = %19
  %21 = load i8, ptr %7, align 1, !tbaa !13
  %22 = add i64 %.val.i.i, -2
  %23 = zext i8 %21 to i64
  %24 = icmp ult i64 %22, %23
  br i1 %24, label %PACKET_get_sub_packet.exit, label %25

25:                                               ; preds = %20
  %26 = getelementptr inbounds nuw i8, ptr %5, i64 2
  %27 = getelementptr inbounds nuw i8, ptr %26, i64 %23
  %28 = sub nuw i64 %22, %23
  store ptr %27, ptr %0, align 8, !tbaa !3
  store i64 %28, ptr %3, align 8, !tbaa !8
  store ptr %26, ptr %1, align 8, !tbaa !12
  %29 = getelementptr inbounds nuw i8, ptr %1, i64 8
  store i64 %23, ptr %29, align 8, !tbaa !10
  br label %PACKET_get_sub_packet.exit

30:                                               ; preds = %18
  %31 = icmp ult i64 %.val.i.i, 3
  br i1 %31, label %PACKET_get_sub_packet.exit, label %32

32:                                               ; preds = %30
  %33 = load i8, ptr %7, align 1, !tbaa !13
  %34 = zext i8 %33 to i64
  %35 = shl nuw nsw i64 %34, 8
  %36 = getelementptr inbounds nuw i8, ptr %5, i64 2
  %37 = load i8, ptr %36, align 1, !tbaa !13
  %38 = zext i8 %37 to i64
  %39 = or disjoint i64 %35, %38
  %40 = add i64 %.val.i.i, -3
  %41 = icmp ult i64 %40, %39
  br i1 %41, label %PACKET_get_sub_packet.exit, label %42

42:                                               ; preds = %32
  %43 = getelementptr inbounds nuw i8, ptr %5, i64 3
  %44 = getelementptr inbounds nuw i8, ptr %43, i64 %39
  %45 = sub nuw i64 %40, %39
  store ptr %44, ptr %0, align 8, !tbaa !3
  store i64 %45, ptr %3, align 8, !tbaa !8
  store ptr %43, ptr %1, align 8, !tbaa !12
  %46 = getelementptr inbounds nuw i8, ptr %1, i64 8
  store i64 %39, ptr %46, align 8, !tbaa !10
  br label %PACKET_get_sub_packet.exit

PACKET_get_sub_packet.exit:                       ; preds = %2, %42, %32, %30, %25, %20, %19, %13, %10, %18
  %.0 = phi i32 [ 0, %18 ], [ 1, %13 ], [ 0, %10 ], [ 1, %25 ], [ 0, %19 ], [ 0, %20 ], [ 1, %42 ], [ 0, %30 ], [ 0, %32 ], [ 0, %2 ]
  ret i32 %.0
}